; ModuleID = '51/413.c'
source_filename = "51/413.c"
target datalayout = "e-m:e-p270:32:32-p271:32:32-p272:64:64-i64:64-f80:128-n8:16:32:64-S128"
target triple = "x86_64-pc-linux-gnu"

@.str = private unnamed_addr constant [4 x i8] c"%d\0A\00", align 1
@.str.1 = private unnamed_addr constant [3 x i8] c"NO\00", align 1

; Function Attrs: noinline nounwind uwtable
define dso_local i32 @main() #0 {
  %1 = alloca i32, align 4
  %2 = alloca i32, align 4
  %3 = alloca i32, align 4
  %4 = alloca i32, align 4
  %5 = alloca i32, align 4
  %6 = alloca i32, align 4
  %7 = alloca [505 x i32], align 16
  %8 = alloca [505 x i32], align 16
  %9 = alloca [505 x i8], align 16
  %10 = alloca [505 x [6 x i8]], align 16
  store i32 0, i32* %1, align 4
  store i32 0, i32* %3, align 4
  br label %11

11:                                               ; preds = %21, %0
  %12 = load i32, i32* %3, align 4
  %13 = icmp slt i32 %12, 505
  br i1 %13, label %14, label %24

14:                                               ; preds = %11
  %15 = load i32, i32* %3, align 4
  %16 = sext i32 %15 to i64
  %17 = getelementptr inbounds [505 x i32], [505 x i32]* %7, i64 0, i64 %16
  store i32 0, i32* %17, align 4
  %18 = load i32, i32* %3, align 4
  %19 = sext i32 %18 to i64
  %20 = getelementptr inbounds [505 x i32], [505 x i32]* %8, i64 0, i64 %19
  store i32 0, i32* %20, align 4
  br label %21

21:                                               ; preds = %14
  %22 = load i32, i32* %3, align 4
  %23 = add nsw i32 %22, 1
  store i32 %23, i32* %3, align 4
  br label %11

24:                                               ; preds = %11
  %25 = call i32 (i8*, ...) @__isoc99_scanf(i8* getelementptr inbounds ([4 x i8], [4 x i8]* @.str, i64 0, i64 0), i32* %2)
  %26 = getelementptr inbounds [505 x i8], [505 x i8]* %9, i64 0, i64 0
  %27 = call i32 (i8*, ...) bitcast (i32 (...)* @gets to i32 (i8*, ...)*)(i8* %26)
  %28 = getelementptr inbounds [505 x i8], [505 x i8]* %9, i64 0, i64 0
  %29 = call i64 @strlen(i8* %28) #3
  %30 = trunc i64 %29 to i32
  store i32 %30, i32* %5, align 4
  store i32 0, i32* %3, align 4
  br label %31

31:                                               ; preds = %70, %24
  %32 = load i32, i32* %3, align 4
  %33 = load i32, i32* %5, align 4
  %34 = load i32, i32* %2, align 4
  %35 = sub nsw i32 %33, %34
  %36 = icmp sle i32 %32, %35
  br i1 %36, label %37, label %73

37:                                               ; preds = %31
  %38 = load i32, i32* %3, align 4
  store i32 %38, i32* %4, align 4
  br label %39

39:                                               ; preds = %58, %37
  %40 = load i32, i32* %4, align 4
  %41 = load i32, i32* %3, align 4
  %42 = load i32, i32* %2, align 4
  %43 = add nsw i32 %41, %42
  %44 = icmp slt i32 %40, %43
  br i1 %44, label %45, label %61

45:                                               ; preds = %39
  %46 = load i32, i32* %4, align 4
  %47 = sext i32 %46 to i64
  %48 = getelementptr inbounds [505 x i8], [505 x i8]* %9, i64 0, i64 %47
  %49 = load i8, i8* %48, align 1
  %50 = load i32, i32* %3, align 4
  %51 = sext i32 %50 to i64
  %52 = getelementptr inbounds [505 x [6 x i8]], [505 x [6 x i8]]* %10, i64 0, i64 %51
  %53 = load i32, i32* %4, align 4
  %54 = load i32, i32* %3, align 4
  %55 = sub nsw i32 %53, %54
  %56 = sext i32 %55 to i64
  %57 = getelementptr inbounds [6 x i8], [6 x i8]* %52, i64 0, i64 %56
  store i8 %49, i8* %57, align 1
  br label %58

58:                                               ; preds = %45
  %59 = load i32, i32* %4, align 4
  %60 = add nsw i32 %59, 1
  store i32 %60, i32* %4, align 4
  br label %39

61:                                               ; preds = %39
  %62 = load i32, i32* %3, align 4
  %63 = sext i32 %62 to i64
  %64 = getelementptr inbounds [505 x [6 x i8]], [505 x [6 x i8]]* %10, i64 0, i64 %63
  %65 = load i32, i32* %4, align 4
  %66 = load i32, i32* %3, align 4
  %67 = sub nsw i32 %65, %66
  %68 = sext i32 %67 to i64
  %69 = getelementptr inbounds [6 x i8], [6 x i8]* %64, i64 0, i64 %68
  store i8 0, i8* %69, align 1
  br label %70

70:                                               ; preds = %61
  %71 = load i32, i32* %3, align 4
  %72 = add nsw i32 %71, 1
  store i32 %72, i32* %3, align 4
  br label %31

73:                                               ; preds = %31
  store i32 0, i32* %3, align 4
  br label %74

74:                                               ; preds = %116, %73
  %75 = load i32, i32* %3, align 4
  %76 = load i32, i32* %5, align 4
  %77 = load i32, i32* %2, align 4
  %78 = sub nsw i32 %76, %77
  %79 = icmp sle i32 %75, %78
  br i1 %79, label %80, label %119

80:                                               ; preds = %74
  %81 = load i32, i32* %3, align 4
  %82 = add nsw i32 %81, 1
  store i32 %82, i32* %4, align 4
  br label %83

83:                                               ; preds = %112, %80
  %84 = load i32, i32* %4, align 4
  %85 = load i32, i32* %5, align 4
  %86 = load i32, i32* %2, align 4
  %87 = sub nsw i32 %85, %86
  %88 = icmp sle i32 %84, %87
  br i1 %88, label %89, label %115

89:                                               ; preds = %83
  %90 = load i32, i32* %3, align 4
  %91 = sext i32 %90 to i64
  %92 = getelementptr inbounds [505 x [6 x i8]], [505 x [6 x i8]]* %10, i64 0, i64 %91
  %93 = getelementptr inbounds [6 x i8], [6 x i8]* %92, i64 0, i64 0
  %94 = load i32, i32* %4, align 4
  %95 = sext i32 %94 to i64
  %96 = getelementptr inbounds [505 x [6 x i8]], [505 x [6 x i8]]* %10, i64 0, i64 %95
  %97 = getelementptr inbounds [6 x i8], [6 x i8]* %96, i64 0, i64 0
  %98 = call i32 @strcmp(i8* %93, i8* %97) #3
  %99 = icmp eq i32 %98, 0
  br i1 %99, label %100, label %111

100:                                              ; preds = %89
  %101 = load i32, i32* %3, align 4
  %102 = sext i32 %101 to i64
  %103 = getelementptr inbounds [505 x i32], [505 x i32]* %7, i64 0, i64 %102
  %104 = load i32, i32* %103, align 4
  %105 = add nsw i32 %104, 1
  store i32 %105, i32* %103, align 4
  %106 = load i32, i32* %3, align 4
  %107 = sext i32 %106 to i64
  %108 = getelementptr inbounds [505 x i32], [505 x i32]* %8, i64 0, i64 %107
  %109 = load i32, i32* %108, align 4
  %110 = add nsw i32 %109, 1
  store i32 %110, i32* %108, align 4
  br label %111

111:                                              ; preds = %100, %89
  br label %112

112:                                              ; preds = %111
  %113 = load i32, i32* %4, align 4
  %114 = add nsw i32 %113, 1
  store i32 %114, i32* %4, align 4
  br label %83

115:                                              ; preds = %83
  br label %116

116:                                              ; preds = %115
  %117 = load i32, i32* %3, align 4
  %118 = add nsw i32 %117, 1
  store i32 %118, i32* %3, align 4
  br label %74

119:                                              ; preds = %74
  store i32 0, i32* %3, align 4
  br label %120

120:                                              ; preds = %169, %119
  %121 = load i32, i32* %3, align 4
  %122 = load i32, i32* %5, align 4
  %123 = load i32, i32* %2, align 4
  %124 = sub nsw i32 %122, %123
  %125 = icmp slt i32 %121, %124
  br i1 %125, label %126, label %172

126:                                              ; preds = %120
  store i32 0, i32* %4, align 4
  br label %127

127:                                              ; preds = %165, %126
  %128 = load i32, i32* %4, align 4
  %129 = load i32, i32* %5, align 4
  %130 = load i32, i32* %2, align 4
  %131 = sub nsw i32 %129, %130
  %132 = load i32, i32* %3, align 4
  %133 = sub nsw i32 %131, %132
  %134 = icmp slt i32 %128, %133
  br i1 %134, label %135, label %168

135:                                              ; preds = %127
  %136 = load i32, i32* %4, align 4
  %137 = sext i32 %136 to i64
  %138 = getelementptr inbounds [505 x i32], [505 x i32]* %7, i64 0, i64 %137
  %139 = load i32, i32* %138, align 4
  %140 = load i32, i32* %4, align 4
  %141 = add nsw i32 %140, 1
  %142 = sext i32 %141 to i64
  %143 = getelementptr inbounds [505 x i32], [505 x i32]* %7, i64 0, i64 %142
  %144 = load i32, i32* %143, align 4
  %145 = icmp sgt i32 %139, %144
  br i1 %145, label %146, label %164

146:                                              ; preds = %135
  %147 = load i32, i32* %4, align 4
  %148 = sext i32 %147 to i64
  %149 = getelementptr inbounds [505 x i32], [505 x i32]* %7, i64 0, i64 %148
  %150 = load i32, i32* %149, align 4
  store i32 %150, i32* %6, align 4
  %151 = load i32, i32* %4, align 4
  %152 = add nsw i32 %151, 1
  %153 = sext i32 %152 to i64
  %154 = getelementptr inbounds [505 x i32], [505 x i32]* %7, i64 0, i64 %153
  %155 = load i32, i32* %154, align 4
  %156 = load i32, i32* %4, align 4
  %157 = sext i32 %156 to i64
  %158 = getelementptr inbounds [505 x i32], [505 x i32]* %7, i64 0, i64 %157
  store i32 %155, i32* %158, align 4
  %159 = load i32, i32* %6, align 4
  %160 = load i32, i32* %4, align 4
  %161 = add nsw i32 %160, 1
  %162 = sext i32 %161 to i64
  %163 = getelementptr inbounds [505 x i32], [505 x i32]* %7, i64 0, i64 %162
  store i32 %159, i32* %163, align 4
  br label %164

164:                                              ; preds = %146, %135
  br label %165

165:                                              ; preds = %164
  %166 = load i32, i32* %4, align 4
  %167 = add nsw i32 %166, 1
  store i32 %167, i32* %4, align 4
  br label %127

168:                                              ; preds = %127
  br label %169

169:                                              ; preds = %168
  %170 = load i32, i32* %3, align 4
  %171 = add nsw i32 %170, 1
  store i32 %171, i32* %3, align 4
  br label %120

172:                                              ; preds = %120
  %173 = load i32, i32* %5, align 4
  %174 = load i32, i32* %2, align 4
  %175 = sub nsw i32 %173, %174
  %176 = sext i32 %175 to i64
  %177 = getelementptr inbounds [505 x i32], [505 x i32]* %7, i64 0, i64 %176
  %178 = load i32, i32* %177, align 4
  %179 = icmp eq i32 %178, 0
  br i1 %179, label %180, label %182

180:                                              ; preds = %172
  %181 = call i32 (i8*, ...) @printf(i8* getelementptr inbounds ([3 x i8], [3 x i8]* @.str.1, i64 0, i64 0))
  br label %220

182:                                              ; preds = %172
  %183 = load i32, i32* %5, align 4
  %184 = load i32, i32* %2, align 4
  %185 = sub nsw i32 %183, %184
  %186 = sext i32 %185 to i64
  %187 = getelementptr inbounds [505 x i32], [505 x i32]* %7, i64 0, i64 %186
  %188 = load i32, i32* %187, align 4
  %189 = add nsw i32 %188, 1
  %190 = call i32 (i8*, ...) @printf(i8* getelementptr inbounds ([4 x i8], [4 x i8]* @.str, i64 0, i64 0), i32 %189)
  store i32 0, i32* %4, align 4
  br label %191

191:                                              ; preds = %216, %182
  %192 = load i32, i32* %4, align 4
  %193 = load i32, i32* %5, align 4
  %194 = load i32, i32* %2, align 4
  %195 = sub nsw i32 %193, %194
  %196 = icmp sle i32 %192, %195
  br i1 %196, label %197, label %219

197:                                              ; preds = %191
  %198 = load i32, i32* %4, align 4
  %199 = sext i32 %198 to i64
  %200 = getelementptr inbounds [505 x i32], [505 x i32]* %8, i64 0, i64 %199
  %201 = load i32, i32* %200, align 4
  %202 = load i32, i32* %5, align 4
  %203 = load i32, i32* %2, align 4
  %204 = sub nsw i32 %202, %203
  %205 = sext i32 %204 to i64
  %206 = getelementptr inbounds [505 x i32], [505 x i32]* %7, i64 0, i64 %205
  %207 = load i32, i32* %206, align 4
  %208 = icmp eq i32 %201, %207
  br i1 %208, label %209, label %215

209:                                              ; preds = %197
  %210 = load i32, i32* %4, align 4
  %211 = sext i32 %210 to i64
  %212 = getelementptr inbounds [505 x [6 x i8]], [505 x [6 x i8]]* %10, i64 0, i64 %211
  %213 = getelementptr inbounds [6 x i8], [6 x i8]* %212, i64 0, i64 0
  %214 = call i32 @puts(i8* %213)
  br label %215

215:                                              ; preds = %209, %197
  br label %216

216:                                              ; preds = %215
  %217 = load i32, i32* %4, align 4
  %218 = add nsw i32 %217, 1
  store i32 %218, i32* %4, align 4
  br label %191

219:                                              ; preds = %191
  br label %220

220:                                              ; preds = %219, %180
  ret i32 0
}

declare dso_local i32 @__isoc99_scanf(i8*, ...) #1

declare dso_local i32 @gets(...) #1

; Function Attrs: nounwind readonly
declare dso_local i64 @strlen(i8*) #2

; Function Attrs: nounwind readonly
declare dso_local i32 @strcmp(i8*, i8*) #2

declare dso_local i32 @printf(i8*, ...) #1

declare dso_local i32 @puts(i8*) #1


!llvm.module.flags = !{!0}
!llvm.ident = !{!1}

!0 = !{i32 1, !"wchar_size", i32 4}
!1 = !{!"clang version 10.0.0-4ubuntu1 "}
